target datalayout = "e-m:e-p270:32:32-p271:32:32-p272:64:64-i64:64-i128:128-f80:128-n8:16:32:64-S128"
target triple = "x86_64-pc-linux-gnu"

%struct.lean_object = type { i32, i32 }
%struct.lean_ctor_object = type { %struct.lean_object, [0 x ptr] }

; Function Attrs: inlinehint nounwind uwtable
define internal ptr @lean_to_ctor(ptr noundef %0) #0 {
  %2 = alloca ptr, align 8
  store ptr %0, ptr %2, align 8, !tbaa !4
  %3 = load ptr, ptr %2, align 8, !tbaa !4
  ret ptr %3
}

; Function Attrs: inlinehint nounwind uwtable
define internal ptr @lean_ctor_obj_cptr(ptr noundef %0) #0 {
  %2 = alloca ptr, align 8
  store ptr %0, ptr %2, align 8, !tbaa !4
  %3 = load ptr, ptr %2, align 8, !tbaa !4
  %4 = call ptr @lean_to_ctor(ptr noundef %3)
  %5 = getelementptr inbounds nuw %struct.lean_ctor_object, ptr %4, i32 0, i32 1
  %6 = getelementptr inbounds [0 x ptr], ptr %5, i64 0, i64 0
  ret ptr %6
}

; Function Attrs: alwaysinline nounwind uwtable
define internal void @lean_dec_ref(ptr noundef %0) #1 {
  %2 = alloca ptr, align 8
  store ptr %0, ptr %2, align 8, !tbaa !4
  %3 = load ptr, ptr %2, align 8, !tbaa !4
  %4 = getelementptr inbounds nuw %struct.lean_object, ptr %3, i32 0, i32 0
  %5 = load i32, ptr %4, align 4, !tbaa !17
  %6 = icmp sgt i32 %5, 1
  %7 = zext i1 %6 to i32
  %8 = sext i32 %7 to i64
  %9 = call i64 @llvm.expect.i64(i64 %8, i64 1)
  %10 = icmp ne i64 %9, 0
  br i1 %10, label %11, label %16

11:                                               ; preds = %1
  %12 = load ptr, ptr %2, align 8, !tbaa !4
  %13 = getelementptr inbounds nuw %struct.lean_object, ptr %12, i32 0, i32 0
  %14 = load i32, ptr %13, align 4, !tbaa !17
  %15 = add i32 %14, -1
  store i32 %15, ptr %13, align 4, !tbaa !17
  br label %24

16:                                               ; preds = %1
  %17 = load ptr, ptr %2, align 8, !tbaa !4
  %18 = getelementptr inbounds nuw %struct.lean_object, ptr %17, i32 0, i32 0
  %19 = load i32, ptr %18, align 4, !tbaa !17
  %20 = icmp ne i32 %19, 0
  br i1 %20, label %21, label %23

21:                                               ; preds = %16
  %22 = load ptr, ptr %2, align 8, !tbaa !4
  call void @lean_dec_ref_cold(ptr noundef %22)
  br label %23

23:                                               ; preds = %21, %16
  br label %24

24:                                               ; preds = %23, %11
  ret void
}

; Function Attrs: alwaysinline nounwind uwtable
define internal zeroext i1 @lean_is_scalar(ptr noundef %0) #1 {
  %2 = alloca ptr, align 8
  store ptr %0, ptr %2, align 8, !tbaa !4
  %3 = load ptr, ptr %2, align 8, !tbaa !4
  %4 = ptrtoint ptr %3 to i64
  %5 = and i64 %4, 1
  %6 = icmp eq i64 %5, 1
  ret i1 %6
}

; Function Attrs: inlinehint nounwind uwtable
define internal ptr @lean_ctor_get(ptr noundef %0, i32 noundef %1) #0 {
  %3 = alloca ptr, align 8
  %4 = alloca i32, align 4
  store ptr %0, ptr %3, align 8, !tbaa !4
  store i32 %1, ptr %4, align 4, !tbaa !12
  %5 = load ptr, ptr %3, align 8, !tbaa !4
  %6 = call ptr @lean_ctor_obj_cptr(ptr noundef %5)
  %7 = load i32, ptr %4, align 4, !tbaa !12
  %8 = zext i32 %7 to i64
  %9 = getelementptr inbounds nuw ptr, ptr %6, i64 %8
  %10 = load ptr, ptr %9, align 8, !tbaa !4
  ret ptr %10
}

; Function Attrs: inlinehint nounwind uwtable
define internal ptr @lean_box(i64 noundef %0) #0 {
  %2 = alloca i64, align 8
  store i64 %0, ptr %2, align 8, !tbaa !8
  %3 = load i64, ptr %2, align 8, !tbaa !8
  %4 = shl i64 %3, 1
  %5 = or i64 %4, 1
  %6 = inttoptr i64 %5 to ptr
  ret ptr %6
}

; Function Attrs: alwaysinline nounwind uwtable
define internal void @lean_dec(ptr noundef %0) #1 {
  %2 = alloca ptr, align 8
  store ptr %0, ptr %2, align 8, !tbaa !4
  %3 = load ptr, ptr %2, align 8, !tbaa !4
  %4 = call zeroext i1 @lean_is_scalar(ptr noundef %3)
  br i1 %4, label %7, label %5

5:                                                ; preds = %1
  %6 = load ptr, ptr %2, align 8, !tbaa !4
  call void @lean_dec_ref(ptr noundef %6)
  br label %7

7:                                                ; preds = %5, %1
  ret void
}

; Function Attrs: nounwind uwtable
define zeroext i8 @l_Lake_Toml_RBDict_isEmpty___rarg(ptr noundef %0) #2 {
  %2 = alloca ptr, align 8
  %3 = alloca ptr, align 8
  %4 = alloca i8, align 1
  store ptr %0, ptr %2, align 8, !tbaa !4
  br label %5

5:                                                ; preds = %1
  call void @llvm.lifetime.start.p0(i64 8, ptr %3) #8
  call void @llvm.lifetime.start.p0(i64 1, ptr %4) #8
  %6 = load ptr, ptr %2, align 8, !tbaa !4
  %7 = call ptr @lean_ctor_get(ptr noundef %6, i32 noundef 0)
  store ptr %7, ptr %3, align 8, !tbaa !4
  %8 = load ptr, ptr %3, align 8, !tbaa !4
  %9 = call zeroext i8 @l_Array_isEmpty___rarg(ptr noundef %8)
  store i8 %9, ptr %4, align 1, !tbaa !16
  %10 = load i8, ptr %4, align 1, !tbaa !16
  call void @llvm.lifetime.end.p0(i64 1, ptr %4) #8
  call void @llvm.lifetime.end.p0(i64 8, ptr %3) #8
  ret i8 %10
}

; Function Attrs: nounwind uwtable
define ptr @l_Lake_Toml_RBDict_isEmpty___rarg___boxed(ptr noundef %0) #2 {
  %2 = alloca ptr, align 8
  %3 = alloca i8, align 1
  %4 = alloca ptr, align 8
  store ptr %0, ptr %2, align 8, !tbaa !4
  br label %5

5:                                                ; preds = %1
  call void @llvm.lifetime.start.p0(i64 1, ptr %3) #8
  call void @llvm.lifetime.start.p0(i64 8, ptr %4) #8
  %6 = load ptr, ptr %2, align 8, !tbaa !4
  %7 = call zeroext i8 @l_Lake_Toml_RBDict_isEmpty___rarg(ptr noundef %6)
  store i8 %7, ptr %3, align 1, !tbaa !16
  %8 = load ptr, ptr %2, align 8, !tbaa !4
  call void @lean_dec(ptr noundef %8)
  %9 = load i8, ptr %3, align 1, !tbaa !16
  %10 = zext i8 %9 to i64
  %11 = call ptr @lean_box(i64 noundef %10)
  store ptr %11, ptr %4, align 8, !tbaa !4
  %12 = load ptr, ptr %4, align 8, !tbaa !4
  call void @llvm.lifetime.end.p0(i64 8, ptr %4) #8
  call void @llvm.lifetime.end.p0(i64 1, ptr %3) #8
  ret ptr %12
}